target datalayout = "e-m:e-p270:32:32-p271:32:32-p272:64:64-i64:64-i128:128-f80:128-n8:16:32:64-S128"
target triple = "x86_64-pc-linux-gnu"

%"class.std::__cxx11::basic_string" = type { %"struct.std::__cxx11::basic_string<char>::_Alloc_hider", i64, %union.anon }
%"struct.std::__cxx11::basic_string<char>::_Alloc_hider" = type { ptr }
%union.anon = type { i64, [8 x i8] }
%"class.cmsys::RegularExpression" = type { %"class.cmsys::RegularExpressionMatch", i8, i8, ptr, i64, ptr, i32, i32 }
%"class.cmsys::RegularExpressionMatch" = type { [32 x ptr], [32 x ptr], ptr }

@__dso_handle = external hidden global i8
@_ZZN9cmFileSet11IsValidNameERKNSt7__cxx1112basic_stringIcSt11char_traitsIcESaIcEEEE5regex = internal global %"class.cmsys::RegularExpression" zeroinitializer, align 8
@_ZGVZN9cmFileSet11IsValidNameERKNSt7__cxx1112basic_stringIcSt11char_traitsIcESaIcEEEE5regex = internal global i64 0, align 8
@.str.13 = private unnamed_addr constant [24 x i8] c"^[a-z0-9][a-zA-Z0-9_]*$\00", align 1

; Function Attrs: noinline noreturn nounwind uwtable
define linkonce_odr hidden void @__clang_call_terminate(ptr noundef %0) #11 comdat {
  %2 = call ptr @__cxa_begin_catch(ptr %0) #3
  call void @_ZSt9terminatev() #21
  unreachable
}

; Function Attrs: mustprogress nounwind uwtable
define available_externally noundef ptr @_ZNKSt7__cxx1112basic_stringIcSt11char_traitsIcESaIcEE7_M_dataEv(ptr noundef nonnull align 8 dereferenceable(32) %0) #6 align 2 {
  %2 = alloca ptr, align 8
  store ptr %0, ptr %2, align 8, !tbaa !18
  %3 = load ptr, ptr %2, align 8
  %4 = getelementptr inbounds nuw %"class.std::__cxx11::basic_string", ptr %3, i32 0, i32 0
  %5 = getelementptr inbounds nuw %"struct.std::__cxx11::basic_string<char>::_Alloc_hider", ptr %4, i32 0, i32 0
  %6 = load ptr, ptr %5, align 8, !tbaa !294
  ret ptr %6
}

; Function Attrs: mustprogress nounwind uwtable
define available_externally noundef ptr @_ZNKSt7__cxx1112basic_stringIcSt11char_traitsIcESaIcEE5c_strEv(ptr noundef nonnull align 8 dereferenceable(32) %0) #6 align 2 personality ptr @__gxx_personality_v0 {
  %2 = alloca ptr, align 8
  store ptr %0, ptr %2, align 8, !tbaa !18
  %3 = load ptr, ptr %2, align 8
  %4 = invoke noundef ptr @_ZNKSt7__cxx1112basic_stringIcSt11char_traitsIcESaIcEE7_M_dataEv(ptr noundef nonnull align 8 dereferenceable(32) %3)
          to label %5 unwind label %6

5:                                                ; preds = %1
  ret ptr %4

6:                                                ; preds = %1
  %7 = landingpad { ptr, i32 }
          catch ptr null
  %8 = extractvalue { ptr, i32 } %7, 0
  call void @__clang_call_terminate(ptr %8) #21
  unreachable
}

; Function Attrs: inlinehint mustprogress nounwind uwtable
define linkonce_odr dso_local void @_ZN5cmsys22RegularExpressionMatchC2Ev(ptr noundef nonnull align 8 dereferenceable(520) %0) unnamed_addr #9 comdat align 2 {
  %2 = alloca ptr, align 8
  store ptr %0, ptr %2, align 8, !tbaa !144
  %3 = load ptr, ptr %2, align 8
  %4 = getelementptr inbounds nuw %"class.cmsys::RegularExpressionMatch", ptr %3, i32 0, i32 0
  call void @llvm.memset.p0.i64(ptr align 8 %4, i8 0, i64 256, i1 false)
  %5 = getelementptr inbounds nuw %"class.cmsys::RegularExpressionMatch", ptr %3, i32 0, i32 1
  call void @llvm.memset.p0.i64(ptr align 8 %5, i8 0, i64 256, i1 false)
  %6 = getelementptr inbounds nuw %"class.cmsys::RegularExpressionMatch", ptr %3, i32 0, i32 2
  store ptr null, ptr %6, align 8, !tbaa !146
  ret void
}

; Function Attrs: inlinehint mustprogress uwtable
define linkonce_odr dso_local void @_ZN5cmsys17RegularExpressionC2EPKc(ptr noundef nonnull align 8 dereferenceable(560) %0, ptr noundef %1) unnamed_addr #7 comdat align 2 {
  %3 = alloca ptr, align 8
  %4 = alloca ptr, align 8
  store ptr %0, ptr %3, align 8, !tbaa !133
  store ptr %1, ptr %4, align 8, !tbaa !22
  %5 = load ptr, ptr %3, align 8
  %6 = getelementptr inbounds nuw %"class.cmsys::RegularExpression", ptr %5, i32 0, i32 0
  call void @_ZN5cmsys22RegularExpressionMatchC2Ev(ptr noundef nonnull align 8 dereferenceable(520) %6)
  %7 = getelementptr inbounds nuw %"class.cmsys::RegularExpression", ptr %5, i32 0, i32 1
  store i8 0, ptr %7, align 8, !tbaa !135
  %8 = getelementptr inbounds nuw %"class.cmsys::RegularExpression", ptr %5, i32 0, i32 2
  store i8 0, ptr %8, align 1, !tbaa !139
  %9 = getelementptr inbounds nuw %"class.cmsys::RegularExpression", ptr %5, i32 0, i32 3
  store ptr null, ptr %9, align 8, !tbaa !140
  %10 = getelementptr inbounds nuw %"class.cmsys::RegularExpression", ptr %5, i32 0, i32 5
  store ptr null, ptr %10, align 8, !tbaa !141
  %11 = getelementptr inbounds nuw %"class.cmsys::RegularExpression", ptr %5, i32 0, i32 6
  store i32 0, ptr %11, align 8, !tbaa !142
  %12 = getelementptr inbounds nuw %"class.cmsys::RegularExpression", ptr %5, i32 0, i32 7
  store i32 0, ptr %12, align 4, !tbaa !143
  %13 = load ptr, ptr %4, align 8, !tbaa !22
  %14 = icmp ne ptr %13, null
  br i1 %14, label %15, label %18

15:                                               ; preds = %2
  %16 = load ptr, ptr %4, align 8, !tbaa !22
  %17 = call noundef zeroext i1 @_ZN5cmsys17RegularExpression7compileEPKc(ptr noundef nonnull align 8 dereferenceable(560) %5, ptr noundef %16)
  br label %18

18:                                               ; preds = %15, %2
  ret void
}

; Function Attrs: mustprogress uwtable
define dso_local noundef zeroext i1 @_ZN9cmFileSet11IsValidNameERKNSt7__cxx1112basic_stringIcSt11char_traitsIcESaIcEEE(ptr noundef nonnull align 8 dereferenceable(32) %0) #5 align 2 personality ptr @__gxx_personality_v0 {
  %2 = alloca ptr, align 8
  %3 = alloca ptr, align 8
  %4 = alloca i32, align 4
  %5 = alloca %"class.cmsys::RegularExpressionMatch", align 8
  store ptr %0, ptr %2, align 8, !tbaa !18
  %6 = load atomic i8, ptr @_ZGVZN9cmFileSet11IsValidNameERKNSt7__cxx1112basic_stringIcSt11char_traitsIcESaIcEEEE5regex acquire, align 8
  %7 = icmp eq i8 %6, 0
  br i1 %7, label %8, label %14, !prof !132

8:                                                ; preds = %1
  %9 = call i32 @__cxa_guard_acquire(ptr @_ZGVZN9cmFileSet11IsValidNameERKNSt7__cxx1112basic_stringIcSt11char_traitsIcESaIcEEEE5regex) #3
  %10 = icmp ne i32 %9, 0
  br i1 %10, label %11, label %14

11:                                               ; preds = %8
  invoke void @_ZN5cmsys17RegularExpressionC2EPKc(ptr noundef nonnull align 8 dereferenceable(560) @_ZZN9cmFileSet11IsValidNameERKNSt7__cxx1112basic_stringIcSt11char_traitsIcESaIcEEEE5regex, ptr noundef @.str.13)
          to label %12 unwind label %18

12:                                               ; preds = %11
  %13 = call i32 @__cxa_atexit(ptr @_ZN5cmsys17RegularExpressionD2Ev, ptr @_ZZN9cmFileSet11IsValidNameERKNSt7__cxx1112basic_stringIcSt11char_traitsIcESaIcEEEE5regex, ptr @__dso_handle) #3
  call void @__cxa_guard_release(ptr @_ZGVZN9cmFileSet11IsValidNameERKNSt7__cxx1112basic_stringIcSt11char_traitsIcESaIcEEEE5regex) #3
  br label %14

14:                                               ; preds = %12, %8, %1
  call void @llvm.lifetime.start.p0(i64 520, ptr %5) #3
  call void @_ZN5cmsys22RegularExpressionMatchC2Ev(ptr noundef nonnull align 8 dereferenceable(520) %5)
  %15 = load ptr, ptr %2, align 8, !tbaa !18
  %16 = call noundef ptr @_ZNKSt7__cxx1112basic_stringIcSt11char_traitsIcESaIcEE5c_strEv(ptr noundef nonnull align 8 dereferenceable(32) %15) #3
  %17 = call noundef zeroext i1 @_ZNK5cmsys17RegularExpression4findEPKcRNS_22RegularExpressionMatchEmj(ptr noundef nonnull align 8 dereferenceable(560) @_ZZN9cmFileSet11IsValidNameERKNSt7__cxx1112basic_stringIcSt11char_traitsIcESaIcEEEE5regex, ptr noundef %16, ptr noundef nonnull align 8 dereferenceable(520) %5, i64 noundef 0, i32 noundef 0)
  call void @llvm.lifetime.end.p0(i64 520, ptr %5) #3
  ret i1 %17

18:                                               ; preds = %11
  %19 = landingpad { ptr, i32 }
          cleanup
  %20 = extractvalue { ptr, i32 } %19, 0
  store ptr %20, ptr %3, align 8
  %21 = extractvalue { ptr, i32 } %19, 1
  store i32 %21, ptr %4, align 4
  call void @__cxa_guard_abort(ptr @_ZGVZN9cmFileSet11IsValidNameERKNSt7__cxx1112basic_stringIcSt11char_traitsIcESaIcEEEE5regex) #3
  br label %22

22:                                               ; preds = %18
  %23 = load ptr, ptr %3, align 8
  %24 = load i32, ptr %4, align 4
  %25 = insertvalue { ptr, i32 } poison, ptr %23, 0
  %26 = insertvalue { ptr, i32 } %25, i32 %24, 1
  resume { ptr, i32 } %26
}