; Function Attrs: mustprogress uwtable
define dso_local noundef zeroext i1 @_ZN9cmFileSet11IsValidNameERKNSt7__cxx1112basic_stringIcSt11char_traitsIcESaIcEEE(ptr noundef nonnull readonly align 8 captures(none) dereferenceable(32) %0) local_unnamed_addr #6 align 2 personality ptr @__gxx_personality_v0 {
  %2 = alloca %"class.cmsys::RegularExpressionMatch", align 8
  %3 = load atomic i8, ptr @_ZGVZN9cmFileSet11IsValidNameERKNSt7__cxx1112basic_stringIcSt11char_traitsIcESaIcEEEE5regex acquire, align 8
  %4 = icmp eq i8 %3, 0
  br i1 %4, label %5, label %10, !prof !186

5:                                                ; preds = %1
  %6 = tail call i32 @__cxa_guard_acquire(ptr nonnull @_ZGVZN9cmFileSet11IsValidNameERKNSt7__cxx1112basic_stringIcSt11char_traitsIcESaIcEEEE5regex) #26
  %.not = icmp eq i32 %6, 0
  br i1 %.not, label %10, label %7

7:                                                ; preds = %5
  store ptr null, ptr getelementptr inbounds nuw (i8, ptr @_ZZN9cmFileSet11IsValidNameERKNSt7__cxx1112basic_stringIcSt11char_traitsIcESaIcEEEE5regex, i64 528), align 8, !tbaa !187
  tail call void @llvm.memset.p0.i64(ptr noundef nonnull align 8 dereferenceable(522) @_ZZN9cmFileSet11IsValidNameERKNSt7__cxx1112basic_stringIcSt11char_traitsIcESaIcEEEE5regex, i8 0, i64 522, i1 false)
  tail call void @llvm.memset.p0.i64(ptr noundef nonnull align 8 dereferenceable(16) getelementptr inbounds nuw (i8, ptr @_ZZN9cmFileSet11IsValidNameERKNSt7__cxx1112basic_stringIcSt11char_traitsIcESaIcEEEE5regex, i64 544), i8 0, i64 16, i1 false)
  %8 = invoke noundef zeroext i1 @_ZN5cmsys17RegularExpression7compileEPKc(ptr noundef nonnull align 8 dereferenceable(560) @_ZZN9cmFileSet11IsValidNameERKNSt7__cxx1112basic_stringIcSt11char_traitsIcESaIcEEEE5regex, ptr noundef nonnull @.str.13)
          to label %_ZN5cmsys17RegularExpressionC2EPKc.exit unwind label %13

_ZN5cmsys17RegularExpressionC2EPKc.exit:          ; preds = %7
  %9 = tail call i32 @__cxa_atexit(ptr nonnull @_ZN5cmsys17RegularExpressionD2Ev, ptr nonnull @_ZZN9cmFileSet11IsValidNameERKNSt7__cxx1112basic_stringIcSt11char_traitsIcESaIcEEEE5regex, ptr nonnull @__dso_handle) #26
  tail call void @__cxa_guard_release(ptr nonnull @_ZGVZN9cmFileSet11IsValidNameERKNSt7__cxx1112basic_stringIcSt11char_traitsIcESaIcEEEE5regex) #26
  br label %10

10:                                               ; preds = %_ZN5cmsys17RegularExpressionC2EPKc.exit, %5, %1
  call void @llvm.lifetime.start.p0(i64 520, ptr nonnull %2) #26
  call void @llvm.memset.p0.i64(ptr noundef nonnull align 8 dereferenceable(520) %2, i8 0, i64 520, i1 false)
  %11 = load ptr, ptr %0, align 8, !tbaa !27
  %12 = call noundef zeroext i1 @_ZNK5cmsys17RegularExpression4findEPKcRNS_22RegularExpressionMatchEmj(ptr noundef nonnull align 8 dereferenceable(560) @_ZZN9cmFileSet11IsValidNameERKNSt7__cxx1112basic_stringIcSt11char_traitsIcESaIcEEEE5regex, ptr noundef %11, ptr noundef nonnull align 8 dereferenceable(520) %2, i64 noundef 0, i32 noundef 0)
  call void @llvm.lifetime.end.p0(i64 520, ptr nonnull %2) #26
  ret i1 %12

13:                                               ; preds = %7
  %14 = landingpad { ptr, i32 }
          cleanup
  tail call void @__cxa_guard_abort(ptr nonnull @_ZGVZN9cmFileSet11IsValidNameERKNSt7__cxx1112basic_stringIcSt11char_traitsIcESaIcEEEE5regex) #26
  resume { ptr, i32 } %14
}